target datalayout = "e-m:e-p270:32:32-p271:32:32-p272:64:64-i64:64-i128:128-f80:128-n8:16:32:64-S128"
target triple = "x86_64-pc-linux-gnu"

%union.UElement = type { ptr }

; Function Attrs: mustprogress uwtable
define internal noundef signext i8 @_ZN6icu_77L31tmutfmtHashTableValueComparatorE8UElementS0_(ptr %0, ptr %1) #1 {
  %3 = alloca %union.UElement, align 8
  %4 = alloca %union.UElement, align 8
  %5 = alloca ptr, align 8
  %6 = alloca ptr, align 8
  %7 = getelementptr inbounds nuw %union.UElement, ptr %3, i32 0, i32 0
  store ptr %0, ptr %7, align 8
  %8 = getelementptr inbounds nuw %union.UElement, ptr %4, i32 0, i32 0
  store ptr %1, ptr %8, align 8
  call void @llvm.lifetime.start.p0(i64 8, ptr %5) #11
  %9 = load ptr, ptr %3, align 8, !tbaa !52
  store ptr %9, ptr %5, align 8, !tbaa !55
  call void @llvm.lifetime.start.p0(i64 8, ptr %6) #11
  %10 = load ptr, ptr %4, align 8, !tbaa !52
  store ptr %10, ptr %6, align 8, !tbaa !55
  %11 = load ptr, ptr %5, align 8, !tbaa !55
  %12 = getelementptr inbounds ptr, ptr %11, i64 0
  %13 = load ptr, ptr %12, align 8, !tbaa !58
  %14 = load ptr, ptr %6, align 8, !tbaa !55
  %15 = getelementptr inbounds ptr, ptr %14, i64 0
  %16 = load ptr, ptr %15, align 8, !tbaa !58
  %17 = load ptr, ptr %13, align 8, !tbaa !25
  %18 = getelementptr inbounds ptr, ptr %17, i64 3
  %19 = load ptr, ptr %18, align 8
  %20 = call noundef zeroext i1 %19(ptr noundef nonnull align 8 dereferenceable(512) %13, ptr noundef nonnull align 8 dereferenceable(24) %16)
  br i1 %20, label %21, label %32

21:                                               ; preds = %2
  %22 = load ptr, ptr %5, align 8, !tbaa !55
  %23 = getelementptr inbounds ptr, ptr %22, i64 1
  %24 = load ptr, ptr %23, align 8, !tbaa !58
  %25 = load ptr, ptr %6, align 8, !tbaa !55
  %26 = getelementptr inbounds ptr, ptr %25, i64 1
  %27 = load ptr, ptr %26, align 8, !tbaa !58
  %28 = load ptr, ptr %24, align 8, !tbaa !25
  %29 = getelementptr inbounds ptr, ptr %28, i64 3
  %30 = load ptr, ptr %29, align 8
  %31 = call noundef zeroext i1 %30(ptr noundef nonnull align 8 dereferenceable(512) %24, ptr noundef nonnull align 8 dereferenceable(24) %27)
  br label %32

32:                                               ; preds = %21, %2
  %33 = phi i1 [ false, %2 ], [ %31, %21 ]
  %34 = zext i1 %33 to i8
  call void @llvm.lifetime.end.p0(i64 8, ptr %6) #11
  call void @llvm.lifetime.end.p0(i64 8, ptr %5) #11
  ret i8 %34
}