; Function Attrs: mustprogress uwtable
define internal noundef signext range(i8 0, 2) i8 @_ZN6icu_77L31tmutfmtHashTableValueComparatorE8UElementS0_(ptr readonly captures(none) %0, ptr readonly captures(none) %1) #1 {
  %3 = load ptr, ptr %0, align 8, !tbaa !40
  %4 = load ptr, ptr %1, align 8, !tbaa !40
  %5 = load ptr, ptr %3, align 8, !tbaa !15
  %6 = getelementptr inbounds nuw i8, ptr %5, i64 24
  %7 = load ptr, ptr %6, align 8
  %8 = tail call noundef zeroext i1 %7(ptr noundef nonnull align 8 dereferenceable(512) %3, ptr noundef nonnull align 8 dereferenceable(24) %4)
  br i1 %8, label %9, label %19

9:                                                ; preds = %2
  %10 = getelementptr inbounds nuw i8, ptr %0, i64 8
  %11 = load ptr, ptr %10, align 8, !tbaa !40
  %12 = getelementptr inbounds nuw i8, ptr %1, i64 8
  %13 = load ptr, ptr %12, align 8, !tbaa !40
  %14 = load ptr, ptr %11, align 8, !tbaa !15
  %15 = getelementptr inbounds nuw i8, ptr %14, i64 24
  %16 = load ptr, ptr %15, align 8
  %17 = tail call noundef zeroext i1 %16(ptr noundef nonnull align 8 dereferenceable(512) %11, ptr noundef nonnull align 8 dereferenceable(24) %13)
  %18 = zext i1 %17 to i8
  br label %19

19:                                               ; preds = %9, %2
  %20 = phi i8 [ 0, %2 ], [ %18, %9 ]
  ret i8 %20
}